; Function Attrs: mustprogress uwtable
define void @_ZN5folly6fibers5Baton9setWaiterERNS1_6WaiterE(ptr noundef nonnull align 8 captures(none) dereferenceable(8) %0, ptr noundef nonnull align 8 dereferenceable(8) %1) local_unnamed_addr #0 align 2 personality ptr @__gxx_personality_v0 {
  %3 = load atomic i64, ptr %0 seq_cst, align 8
  %4 = icmp eq i64 %3, 0
  br i1 %4, label %.lr.ph, label %._crit_edge, !prof !7

.lr.ph:                                           ; preds = %2
  %5 = ptrtoint ptr %1 to i64
  br label %14

._crit_edge:                                      ; preds = %_ZNSt13__atomic_baseIlE21compare_exchange_weakERllSt12memory_orderS2_.exit, %2
  %.0.lcssa = phi i64 [ %3, %2 ], [ %17, %_ZNSt13__atomic_baseIlE21compare_exchange_weakERllSt12memory_orderS2_.exit ]
  %or.cond = icmp ugt i64 %.0.lcssa, -3
  br i1 %or.cond, label %6, label %9

6:                                                ; preds = %._crit_edge
  %7 = load ptr, ptr %1, align 8, !tbaa !8
  %8 = load ptr, ptr %7, align 8
  tail call void %8(ptr noundef nonnull align 8 dereferenceable(8) %1)
  br label %_ZNSt13__atomic_baseIlE21compare_exchange_weakERllSt12memory_orderS2_.exit.thread

9:                                                ; preds = %._crit_edge
  %10 = tail call ptr @__cxa_allocate_exception(i64 16) #13
  invoke void @_ZNSt11logic_errorC1EPKc(ptr noundef nonnull align 8 dereferenceable(16) %10, ptr noundef nonnull @.str)
          to label %11 unwind label %12

11:                                               ; preds = %9
  tail call void @__cxa_throw(ptr nonnull %10, ptr nonnull @_ZTISt11logic_error, ptr nonnull @_ZNSt11logic_errorD1Ev) #14
  unreachable

12:                                               ; preds = %9
  %13 = landingpad { ptr, i32 }
          cleanup
  tail call void @__cxa_free_exception(ptr nonnull %10) #13
  resume { ptr, i32 } %13

14:                                               ; preds = %.lr.ph, %_ZNSt13__atomic_baseIlE21compare_exchange_weakERllSt12memory_orderS2_.exit
  %15 = cmpxchg weak ptr %0, i64 0, i64 %5 seq_cst seq_cst, align 8
  %16 = extractvalue { i64, i1 } %15, 1
  br i1 %16, label %_ZNSt13__atomic_baseIlE21compare_exchange_weakERllSt12memory_orderS2_.exit.thread, label %_ZNSt13__atomic_baseIlE21compare_exchange_weakERllSt12memory_orderS2_.exit

_ZNSt13__atomic_baseIlE21compare_exchange_weakERllSt12memory_orderS2_.exit: ; preds = %14
  %17 = extractvalue { i64, i1 } %15, 0
  %18 = icmp eq i64 %17, 0
  br i1 %18, label %14, label %._crit_edge, !prof !11, !llvm.loop !12

_ZNSt13__atomic_baseIlE21compare_exchange_weakERllSt12memory_orderS2_.exit.thread: ; preds = %14, %6
  ret void
}